target datalayout = "e-m:e-p270:32:32-p271:32:32-p272:64:64-i64:64-i128:128-f80:128-n8:16:32:64-S128"
target triple = "x86_64-unknown-linux-gnu"

%"class.icu_75::MaybeStackArray" = type <{ ptr, i32, i8, [40 x i8], [3 x i8] }>
%"class.icu_75::CharString" = type { %"class.icu_75::MaybeStackArray", i32, [4 x i8] }
%"class.icu_75::StringPiece" = type <{ ptr, i32, [4 x i8] }>

; Function Attrs: mustprogress nounwind uwtable
define linkonce_odr noundef i32 @_ZNK6icu_7511StringPiece6lengthEv(ptr noundef nonnull align 8 dereferenceable(12) %this) #0 comdat align 2 {
entry:
  %this.addr = alloca ptr, align 8
  store ptr %this, ptr %this.addr, align 8
  %this1 = load ptr, ptr %this.addr, align 8
  %length_ = getelementptr inbounds %"class.icu_75::StringPiece", ptr %this1, i32 0, i32 1
  %0 = load i32, ptr %length_, align 8
  ret i32 %0
}

; Function Attrs: mustprogress nounwind uwtable
define linkonce_odr noundef ptr @_ZNK6icu_7511StringPiece4dataEv(ptr noundef nonnull align 8 dereferenceable(12) %this) #0 comdat align 2 {
entry:
  %this.addr = alloca ptr, align 8
  store ptr %this, ptr %this.addr, align 8
  %this1 = load ptr, ptr %this.addr, align 8
  %ptr_ = getelementptr inbounds %"class.icu_75::StringPiece", ptr %this1, i32 0, i32 0
  %0 = load ptr, ptr %ptr_, align 8
  ret ptr %0
}

; Function Attrs: mustprogress nounwind uwtable
define weak_odr noundef nonnull align 1 dereferenceable(1) ptr @_ZN6icu_7515MaybeStackArrayIcLi40EEixEl(ptr noundef nonnull align 8 dereferenceable(53) %this, i64 noundef %i) #0 comdat align 2 {
entry:
  %this.addr = alloca ptr, align 8
  %i.addr = alloca i64, align 8
  store ptr %this, ptr %this.addr, align 8
  store i64 %i, ptr %i.addr, align 8
  %this1 = load ptr, ptr %this.addr, align 8
  %ptr = getelementptr inbounds %"class.icu_75::MaybeStackArray", ptr %this1, i32 0, i32 0
  %0 = load ptr, ptr %ptr, align 8
  %1 = load i64, ptr %i.addr, align 8
  %arrayidx = getelementptr inbounds i8, ptr %0, i64 %1
  ret ptr %arrayidx
}

; Function Attrs: mustprogress uwtable
define linkonce_odr noundef nonnull align 8 dereferenceable(60) ptr @_ZN6icu_7510CharString6appendENS_11StringPieceER10UErrorCode(ptr noundef nonnull align 8 dereferenceable(60) %this, ptr %s.coerce0, i32 %s.coerce1, ptr noundef nonnull align 4 dereferenceable(4) %errorCode) #1 comdat align 2 {
entry:
  %s = alloca %"class.icu_75::StringPiece", align 8
  %this.addr = alloca ptr, align 8
  %errorCode.addr = alloca ptr, align 8
  %0 = getelementptr inbounds { ptr, i32 }, ptr %s, i32 0, i32 0
  store ptr %s.coerce0, ptr %0, align 8
  %1 = getelementptr inbounds { ptr, i32 }, ptr %s, i32 0, i32 1
  store i32 %s.coerce1, ptr %1, align 8
  store ptr %this, ptr %this.addr, align 8
  store ptr %errorCode, ptr %errorCode.addr, align 8
  %this1 = load ptr, ptr %this.addr, align 8
  %call = call noundef ptr @_ZNK6icu_7511StringPiece4dataEv(ptr noundef nonnull align 8 dereferenceable(12) %s)
  %call2 = call noundef i32 @_ZNK6icu_7511StringPiece6lengthEv(ptr noundef nonnull align 8 dereferenceable(12) %s)
  %2 = load ptr, ptr %errorCode.addr, align 8
  %call3 = call noundef nonnull align 8 dereferenceable(60) ptr @_ZN6icu_7510CharString6appendEPKciR10UErrorCode(ptr noundef nonnull align 8 dereferenceable(60) %this1, ptr noundef %call, i32 noundef %call2, ptr noundef nonnull align 4 dereferenceable(4) %2)
  ret ptr %call3
}

; Function Attrs: mustprogress nounwind uwtable
define internal noundef signext i8 @_ZL9U_SUCCESS10UErrorCode(i32 noundef %code) #0 {
entry:
  %code.addr = alloca i32, align 4
  store i32 %code, ptr %code.addr, align 4
  %0 = load i32, ptr %code.addr, align 4
  %cmp = icmp sle i32 %0, 0
  %conv = zext i1 %cmp to i8
  ret i8 %conv
}

; Function Attrs: mustprogress nounwind uwtable
define linkonce_odr noundef nonnull align 8 dereferenceable(60) ptr @_ZN6icu_7510CharString5clearEv(ptr noundef nonnull align 8 dereferenceable(60) %this) #0 comdat align 2 {
entry:
  %this.addr = alloca ptr, align 8
  store ptr %this, ptr %this.addr, align 8
  %this1 = load ptr, ptr %this.addr, align 8
  %len = getelementptr inbounds %"class.icu_75::CharString", ptr %this1, i32 0, i32 1
  store i32 0, ptr %len, align 8
  %buffer = getelementptr inbounds %"class.icu_75::CharString", ptr %this1, i32 0, i32 0
  %call = call noundef nonnull align 1 dereferenceable(1) ptr @_ZN6icu_7515MaybeStackArrayIcLi40EEixEl(ptr noundef nonnull align 8 dereferenceable(53) %buffer, i64 noundef 0)
  store i8 0, ptr %call, align 1
  ret ptr %this1
}

; Function Attrs: mustprogress uwtable
define internal void @_ZL10createPathPKciS0_iS0_RN6icu_7510CharStringEP10UErrorCode(ptr noundef %origResPath, i32 noundef %origResPathLen, ptr noundef %resPath, i32 noundef %resPathLen, ptr noundef %inKey, ptr noundef nonnull align 8 dereferenceable(60) %path, ptr noundef %status) #1 {
entry:
  %origResPath.addr = alloca ptr, align 8
  %origResPathLen.addr = alloca i32, align 4
  %resPath.addr = alloca ptr, align 8
  %resPathLen.addr = alloca i32, align 4
  %inKey.addr = alloca ptr, align 8
  %path.addr = alloca ptr, align 8
  %status.addr = alloca ptr, align 8
  %key = alloca ptr, align 8
  %resPathLimit = alloca ptr, align 8
  %origResPathLimit = alloca ptr, align 8
  %resPathPtr = alloca ptr, align 8
  %origResPathPtr = alloca ptr, align 8
  %agg.tmp = alloca %"class.icu_75::StringPiece", align 8
  %agg.tmp77 = alloca %"class.icu_75::StringPiece", align 8
  store ptr %origResPath, ptr %origResPath.addr, align 8
  store i32 %origResPathLen, ptr %origResPathLen.addr, align 4
  store ptr %resPath, ptr %resPath.addr, align 8
  store i32 %resPathLen, ptr %resPathLen.addr, align 4
  store ptr %inKey, ptr %inKey.addr, align 8
  store ptr %path, ptr %path.addr, align 8
  store ptr %status, ptr %status.addr, align 8
  %0 = load ptr, ptr %path.addr, align 8
  %call = call noundef nonnull align 8 dereferenceable(60) ptr @_ZN6icu_7510CharString5clearEv(ptr noundef nonnull align 8 dereferenceable(60) %0)
  %1 = load ptr, ptr %inKey.addr, align 8
  store ptr %1, ptr %key, align 8
  %2 = load i32, ptr %resPathLen.addr, align 4
  %cmp = icmp sgt i32 %2, 0
  br i1 %cmp, label %if.then, label %if.else

if.then:                                          ; preds = %entry
  %3 = load ptr, ptr %path.addr, align 8
  %4 = load ptr, ptr %resPath.addr, align 8
  %5 = load i32, ptr %resPathLen.addr, align 4
  %6 = load ptr, ptr %status.addr, align 8
  %call1 = call noundef nonnull align 8 dereferenceable(60) ptr @_ZN6icu_7510CharString6appendEPKciR10UErrorCode(ptr noundef nonnull align 8 dereferenceable(60) %3, ptr noundef %4, i32 noundef %5, ptr noundef nonnull align 4 dereferenceable(4) %6)
  %7 = load ptr, ptr %status.addr, align 8
  %8 = load i32, ptr %7, align 4
  %call2 = call noundef signext i8 @_ZL9U_SUCCESS10UErrorCode(i32 noundef %8)
  %tobool = icmp ne i8 %call2, 0
  br i1 %tobool, label %if.then3, label %if.end75

if.then3:                                         ; preds = %if.then
  %9 = load ptr, ptr %resPath.addr, align 8
  %10 = load i32, ptr %resPathLen.addr, align 4
  %idx.ext = sext i32 %10 to i64
  %add.ptr = getelementptr inbounds i8, ptr %9, i64 %idx.ext
  store ptr %add.ptr, ptr %resPathLimit, align 8
  %11 = load ptr, ptr %origResPath.addr, align 8
  %12 = load i32, ptr %origResPathLen.addr, align 4
  %idx.ext4 = sext i32 %12 to i64
  %add.ptr5 = getelementptr inbounds i8, ptr %11, i64 %idx.ext4
  store ptr %add.ptr5, ptr %origResPathLimit, align 8
  %13 = load ptr, ptr %resPath.addr, align 8
  store ptr %13, ptr %resPathPtr, align 8
  %14 = load ptr, ptr %origResPath.addr, align 8
  store ptr %14, ptr %origResPathPtr, align 8
  br label %while.cond

while.cond:                                       ; preds = %if.end34, %if.then3
  %15 = load ptr, ptr %origResPathPtr, align 8
  %16 = load ptr, ptr %origResPathLimit, align 8
  %cmp6 = icmp ult ptr %15, %16
  br i1 %cmp6, label %land.rhs, label %land.end

land.rhs:                                         ; preds = %while.cond
  %17 = load ptr, ptr %resPathPtr, align 8
  %18 = load ptr, ptr %resPathLimit, align 8
  %cmp7 = icmp ult ptr %17, %18
  br label %land.end

land.end:                                         ; preds = %land.rhs, %while.cond
  %19 = phi i1 [ false, %while.cond ], [ %cmp7, %land.rhs ]
  br i1 %19, label %while.body, label %while.end35

while.body:                                       ; preds = %land.end
  br label %while.cond8

while.cond8:                                      ; preds = %while.body13, %while.body
  %20 = load ptr, ptr %origResPathPtr, align 8
  %21 = load ptr, ptr %origResPathLimit, align 8
  %cmp9 = icmp ult ptr %20, %21
  br i1 %cmp9, label %land.rhs10, label %land.end12

land.rhs10:                                       ; preds = %while.cond8
  %22 = load ptr, ptr %origResPathPtr, align 8
  %23 = load i8, ptr %22, align 1
  %conv = sext i8 %23 to i32
  %cmp11 = icmp ne i32 %conv, 47
  br label %land.end12

land.end12:                                       ; preds = %land.rhs10, %while.cond8
  %24 = phi i1 [ false, %while.cond8 ], [ %cmp11, %land.rhs10 ]
  br i1 %24, label %while.body13, label %while.end

while.body13:                                     ; preds = %land.end12
  %25 = load ptr, ptr %origResPathPtr, align 8
  %incdec.ptr = getelementptr inbounds i8, ptr %25, i32 1
  store ptr %incdec.ptr, ptr %origResPathPtr, align 8
  br label %while.cond8, !llvm.loop !10

while.end:                                        ; preds = %land.end12
  %26 = load ptr, ptr %origResPathPtr, align 8
  %27 = load ptr, ptr %origResPathLimit, align 8
  %cmp14 = icmp ult ptr %26, %27
  br i1 %cmp14, label %land.lhs.true, label %if.end

land.lhs.true:                                    ; preds = %while.end
  %28 = load ptr, ptr %origResPathPtr, align 8
  %29 = load i8, ptr %28, align 1
  %conv15 = sext i8 %29 to i32
  %cmp16 = icmp eq i32 %conv15, 47
  br i1 %cmp16, label %if.then17, label %if.end

if.then17:                                        ; preds = %land.lhs.true
  %30 = load ptr, ptr %origResPathPtr, align 8
  %incdec.ptr18 = getelementptr inbounds i8, ptr %30, i32 1
  store ptr %incdec.ptr18, ptr %origResPathPtr, align 8
  br label %if.end

if.end:                                           ; preds = %if.then17, %land.lhs.true, %while.end
  br label %while.cond19

while.cond19:                                     ; preds = %while.body25, %if.end
  %31 = load ptr, ptr %resPathPtr, align 8
  %32 = load ptr, ptr %resPathLimit, align 8
  %cmp20 = icmp ult ptr %31, %32
  br i1 %cmp20, label %land.rhs21, label %land.end24

land.rhs21:                                       ; preds = %while.cond19
  %33 = load ptr, ptr %resPathPtr, align 8
  %34 = load i8, ptr %33, align 1
  %conv22 = sext i8 %34 to i32
  %cmp23 = icmp ne i32 %conv22, 47
  br label %land.end24

land.end24:                                       ; preds = %land.rhs21, %while.cond19
  %35 = phi i1 [ false, %while.cond19 ], [ %cmp23, %land.rhs21 ]
  br i1 %35, label %while.body25, label %while.end27

while.body25:                                     ; preds = %land.end24
  %36 = load ptr, ptr %resPathPtr, align 8
  %incdec.ptr26 = getelementptr inbounds i8, ptr %36, i32 1
  store ptr %incdec.ptr26, ptr %resPathPtr, align 8
  br label %while.cond19, !llvm.loop !11

while.end27:                                      ; preds = %land.end24
  %37 = load ptr, ptr %resPathPtr, align 8
  %38 = load ptr, ptr %resPathLimit, align 8
  %cmp28 = icmp ult ptr %37, %38
  br i1 %cmp28, label %land.lhs.true29, label %if.end34

land.lhs.true29:                                  ; preds = %while.end27
  %39 = load ptr, ptr %resPathPtr, align 8
  %40 = load i8, ptr %39, align 1
  %conv30 = sext i8 %40 to i32
  %cmp31 = icmp eq i32 %conv30, 47
  br i1 %cmp31, label %if.then32, label %if.end34

if.then32:                                        ; preds = %land.lhs.true29
  %41 = load ptr, ptr %resPathPtr, align 8
  %incdec.ptr33 = getelementptr inbounds i8, ptr %41, i32 1
  store ptr %incdec.ptr33, ptr %resPathPtr, align 8
  br label %if.end34

if.end34:                                         ; preds = %if.then32, %land.lhs.true29, %while.end27
  br label %while.cond, !llvm.loop !12

while.end35:                                      ; preds = %land.end
  br label %while.cond36

while.cond36:                                     ; preds = %if.end73, %while.end35
  %42 = load ptr, ptr %resPathPtr, align 8
  %43 = load ptr, ptr %resPathLimit, align 8
  %cmp37 = icmp ult ptr %42, %43
  br i1 %cmp37, label %land.rhs38, label %land.end41

land.rhs38:                                       ; preds = %while.cond36
  %44 = load ptr, ptr %key, align 8
  %45 = load i8, ptr %44, align 1
  %conv39 = sext i8 %45 to i32
  %cmp40 = icmp ne i32 %conv39, 0
  br label %land.end41

land.end41:                                       ; preds = %land.rhs38, %while.cond36
  %46 = phi i1 [ false, %while.cond36 ], [ %cmp40, %land.rhs38 ]
  br i1 %46, label %while.body42, label %while.end74

while.body42:                                     ; preds = %land.end41
  br label %while.cond43

while.cond43:                                     ; preds = %while.body49, %while.body42
  %47 = load ptr, ptr %resPathPtr, align 8
  %48 = load ptr, ptr %resPathLimit, align 8
  %cmp44 = icmp ult ptr %47, %48
  br i1 %cmp44, label %land.rhs45, label %land.end48

land.rhs45:                                       ; preds = %while.cond43
  %49 = load ptr, ptr %resPathPtr, align 8
  %50 = load i8, ptr %49, align 1
  %conv46 = sext i8 %50 to i32
  %cmp47 = icmp ne i32 %conv46, 47
  br label %land.end48

land.end48:                                       ; preds = %land.rhs45, %while.cond43
  %51 = phi i1 [ false, %while.cond43 ], [ %cmp47, %land.rhs45 ]
  br i1 %51, label %while.body49, label %while.end51

while.body49:                                     ; preds = %land.end48
  %52 = load ptr, ptr %resPathPtr, align 8
  %incdec.ptr50 = getelementptr inbounds i8, ptr %52, i32 1
  store ptr %incdec.ptr50, ptr %resPathPtr, align 8
  br label %while.cond43, !llvm.loop !13

while.end51:                                      ; preds = %land.end48
  %53 = load ptr, ptr %resPathPtr, align 8
  %54 = load ptr, ptr %resPathLimit, align 8
  %cmp52 = icmp ult ptr %53, %54
  br i1 %cmp52, label %land.lhs.true53, label %if.end58

land.lhs.true53:                                  ; preds = %while.end51
  %55 = load ptr, ptr %resPathPtr, align 8
  %56 = load i8, ptr %55, align 1
  %conv54 = sext i8 %56 to i32
  %cmp55 = icmp eq i32 %conv54, 47
  br i1 %cmp55, label %if.then56, label %if.end58

if.then56:                                        ; preds = %land.lhs.true53
  %57 = load ptr, ptr %resPathPtr, align 8
  %incdec.ptr57 = getelementptr inbounds i8, ptr %57, i32 1
  store ptr %incdec.ptr57, ptr %resPathPtr, align 8
  br label %if.end58

if.end58:                                         ; preds = %if.then56, %land.lhs.true53, %while.end51
  br label %while.cond59

while.cond59:                                     ; preds = %while.body66, %if.end58
  %58 = load ptr, ptr %key, align 8
  %59 = load i8, ptr %58, align 1
  %conv60 = sext i8 %59 to i32
  %cmp61 = icmp ne i32 %conv60, 0
  br i1 %cmp61, label %land.rhs62, label %land.end65

land.rhs62:                                       ; preds = %while.cond59
  %60 = load ptr, ptr %key, align 8
  %61 = load i8, ptr %60, align 1
  %conv63 = sext i8 %61 to i32
  %cmp64 = icmp ne i32 %conv63, 47
  br label %land.end65

land.end65:                                       ; preds = %land.rhs62, %while.cond59
  %62 = phi i1 [ false, %while.cond59 ], [ %cmp64, %land.rhs62 ]
  br i1 %62, label %while.body66, label %while.end68

while.body66:                                     ; preds = %land.end65
  %63 = load ptr, ptr %key, align 8
  %incdec.ptr67 = getelementptr inbounds i8, ptr %63, i32 1
  store ptr %incdec.ptr67, ptr %key, align 8
  br label %while.cond59, !llvm.loop !14

while.end68:                                      ; preds = %land.end65
  %64 = load ptr, ptr %key, align 8
  %65 = load i8, ptr %64, align 1
  %conv69 = sext i8 %65 to i32
  %cmp70 = icmp eq i32 %conv69, 47
  br i1 %cmp70, label %if.then71, label %if.end73

if.then71:                                        ; preds = %while.end68
  %66 = load ptr, ptr %key, align 8
  %incdec.ptr72 = getelementptr inbounds i8, ptr %66, i32 1
  store ptr %incdec.ptr72, ptr %key, align 8
  br label %if.end73

if.end73:                                         ; preds = %if.then71, %while.end68
  br label %while.cond36, !llvm.loop !15

while.end74:                                      ; preds = %land.end41
  br label %if.end75

if.end75:                                         ; preds = %while.end74, %if.then
  %67 = load ptr, ptr %path.addr, align 8
  %68 = load ptr, ptr %key, align 8
  call void @_ZN6icu_7511StringPieceC1EPKc(ptr noundef nonnull align 8 dereferenceable(12) %agg.tmp, ptr noundef %68)
  %69 = load ptr, ptr %status.addr, align 8
  %70 = getelementptr inbounds { ptr, i32 }, ptr %agg.tmp, i32 0, i32 0
  %71 = load ptr, ptr %70, align 8
  %72 = getelementptr inbounds { ptr, i32 }, ptr %agg.tmp, i32 0, i32 1
  %73 = load i32, ptr %72, align 8
  %call76 = call noundef nonnull align 8 dereferenceable(60) ptr @_ZN6icu_7510CharString6appendENS_11StringPieceER10UErrorCode(ptr noundef nonnull align 8 dereferenceable(60) %67, ptr %71, i32 %73, ptr noundef nonnull align 4 dereferenceable(4) %69)
  br label %if.end79

if.else:                                          ; preds = %entry
  %74 = load ptr, ptr %path.addr, align 8
  %75 = load ptr, ptr %inKey.addr, align 8
  call void @_ZN6icu_7511StringPieceC1EPKc(ptr noundef nonnull align 8 dereferenceable(12) %agg.tmp77, ptr noundef %75)
  %76 = load ptr, ptr %status.addr, align 8
  %77 = getelementptr inbounds { ptr, i32 }, ptr %agg.tmp77, i32 0, i32 0
  %78 = load ptr, ptr %77, align 8
  %79 = getelementptr inbounds { ptr, i32 }, ptr %agg.tmp77, i32 0, i32 1
  %80 = load i32, ptr %79, align 8
  %call78 = call noundef nonnull align 8 dereferenceable(60) ptr @_ZN6icu_7510CharString6appendENS_11StringPieceER10UErrorCode(ptr noundef nonnull align 8 dereferenceable(60) %74, ptr %78, i32 %80, ptr noundef nonnull align 4 dereferenceable(4) %76)
  br label %if.end79

if.end79:                                         ; preds = %if.else, %if.end75
  ret void
}