; Function Attrs: mustprogress uwtable
define internal fastcc void @_ZL10createPathPKciS0_iS0_RN6icu_7510CharStringEP10UErrorCode(ptr noundef readonly %origResPath, i32 noundef %origResPathLen, ptr noundef %resPath, i32 noundef %resPathLen, ptr noundef %inKey, ptr noundef nonnull align 8 dereferenceable(60) %path, ptr noundef %status) unnamed_addr #1 {
entry:
  %agg.tmp = alloca %"class.icu_75::StringPiece", align 8
  %agg.tmp77 = alloca %"class.icu_75::StringPiece", align 8
  %len.i = getelementptr inbounds i8, ptr %path, i64 56
  store i32 0, ptr %len.i, align 8
  %0 = load ptr, ptr %path, align 8
  store i8 0, ptr %0, align 1
  %cmp = icmp sgt i32 %resPathLen, 0
  %agg.tmp77.sink.sroa.gep81 = getelementptr inbounds i8, ptr %agg.tmp, i64 8
  br i1 %cmp, label %if.then, label %if.else

if.then:                                          ; preds = %entry
  %call1 = tail call noundef nonnull align 8 dereferenceable(60) ptr @_ZN6icu_7510CharString6appendEPKciR10UErrorCode(ptr noundef nonnull align 8 dereferenceable(60) %path, ptr noundef %resPath, i32 noundef %resPathLen, ptr noundef nonnull align 4 dereferenceable(4) %status)
  %1 = load i32, ptr %status, align 4
  %cmp.i = icmp sgt i32 %1, 0
  br i1 %cmp.i, label %if.end75, label %if.then3

if.then3:                                         ; preds = %if.then
  %idx.ext = zext nneg i32 %resPathLen to i64
  %add.ptr = getelementptr inbounds i8, ptr %resPath, i64 %idx.ext
  %idx.ext4 = sext i32 %origResPathLen to i64
  %add.ptr5 = getelementptr inbounds i8, ptr %origResPath, i64 %idx.ext4
  %cmp655 = icmp sgt i32 %origResPathLen, 0
  br i1 %cmp655, label %while.cond8.preheader, label %while.cond36.preheader

while.cond8.preheader:                            ; preds = %if.then3, %if.end34
  %origResPathPtr.058 = phi ptr [ %incdec.ptr18, %if.end34 ], [ %origResPath, %if.then3 ]
  %resPathPtr.057 = phi ptr [ %resPathPtr.2, %if.end34 ], [ %resPath, %if.then3 ]
  br label %land.rhs10

while.cond36.preheader:                           ; preds = %if.end34, %if.then3
  %resPathPtr.0.lcssa = phi ptr [ %resPath, %if.then3 ], [ %resPathPtr.2, %if.end34 ]
  %cmp3763 = icmp ult ptr %resPathPtr.0.lcssa, %add.ptr
  br i1 %cmp3763, label %land.rhs38, label %if.end75

land.rhs10:                                       ; preds = %land.rhs10, %while.cond8.preheader
  %origResPathPtr.152 = phi ptr [ %origResPathPtr.058, %while.cond8.preheader ], [ %incdec.ptr18, %land.rhs10 ]
  %2 = load i8, ptr %origResPathPtr.152, align 1
  %cmp11.not = icmp ne i8 %2, 47
  %incdec.ptr18 = getelementptr inbounds i8, ptr %origResPathPtr.152, i64 1
  %cmp9 = icmp ult ptr %incdec.ptr18, %add.ptr5
  %or.cond = select i1 %cmp11.not, i1 %cmp9, i1 false
  br i1 %or.cond, label %land.rhs10, label %if.end, !llvm.loop !11

if.end:                                           ; preds = %land.rhs10
  %cmp2053 = icmp ult ptr %resPathPtr.057, %add.ptr
  br i1 %cmp2053, label %land.rhs21, label %if.end34

land.rhs21:                                       ; preds = %if.end, %land.rhs21
  %resPathPtr.154 = phi ptr [ %incdec.ptr33, %land.rhs21 ], [ %resPathPtr.057, %if.end ]
  %3 = load i8, ptr %resPathPtr.154, align 1
  %cmp23.not = icmp ne i8 %3, 47
  %incdec.ptr33 = getelementptr inbounds i8, ptr %resPathPtr.154, i64 1
  %cmp20 = icmp ult ptr %incdec.ptr33, %add.ptr
  %or.cond79 = select i1 %cmp23.not, i1 %cmp20, i1 false
  br i1 %or.cond79, label %land.rhs21, label %if.end34, !llvm.loop !12

if.end34:                                         ; preds = %land.rhs21, %if.end
  %resPathPtr.2 = phi ptr [ %resPathPtr.057, %if.end ], [ %incdec.ptr33, %land.rhs21 ]
  %cmp6 = icmp ult ptr %incdec.ptr18, %add.ptr5
  %cmp7 = icmp ult ptr %resPathPtr.2, %add.ptr
  %4 = select i1 %cmp6, i1 %cmp7, i1 false
  br i1 %4, label %while.cond8.preheader, label %while.cond36.preheader, !llvm.loop !13

land.rhs38:                                       ; preds = %while.cond36.preheader, %while.end68
  %resPathPtr.365 = phi ptr [ %resPathPtr.5, %while.end68 ], [ %resPathPtr.0.lcssa, %while.cond36.preheader ]
  %key.064 = phi ptr [ %spec.select47, %while.end68 ], [ %inKey, %while.cond36.preheader ]
  %5 = load i8, ptr %key.064, align 1
  %cmp40.not = icmp eq i8 %5, 0
  br i1 %cmp40.not, label %if.end75, label %while.cond43.preheader

while.cond43.preheader:                           ; preds = %land.rhs38
  %cmp4460 = icmp ult ptr %resPathPtr.365, %add.ptr
  br i1 %cmp4460, label %land.rhs45, label %if.end58

land.rhs45:                                       ; preds = %while.cond43.preheader, %land.rhs45
  %resPathPtr.461 = phi ptr [ %incdec.ptr57, %land.rhs45 ], [ %resPathPtr.365, %while.cond43.preheader ]
  %6 = load i8, ptr %resPathPtr.461, align 1
  %cmp47.not = icmp ne i8 %6, 47
  %incdec.ptr57 = getelementptr inbounds i8, ptr %resPathPtr.461, i64 1
  %cmp44 = icmp ult ptr %incdec.ptr57, %add.ptr
  %or.cond80 = select i1 %cmp47.not, i1 %cmp44, i1 false
  br i1 %or.cond80, label %land.rhs45, label %if.end58, !llvm.loop !14

if.end58:                                         ; preds = %land.rhs45, %while.cond43.preheader
  %resPathPtr.5 = phi ptr [ %resPathPtr.365, %while.cond43.preheader ], [ %incdec.ptr57, %land.rhs45 ]
  br label %while.cond59

while.cond59:                                     ; preds = %while.body66, %if.end58
  %7 = phi i8 [ %5, %if.end58 ], [ %.pre, %while.body66 ]
  %key.1 = phi ptr [ %key.064, %if.end58 ], [ %incdec.ptr67, %while.body66 ]
  switch i8 %7, label %while.body66 [
    i8 0, label %while.end68
    i8 47, label %while.end68
  ]

while.body66:                                     ; preds = %while.cond59
  %incdec.ptr67 = getelementptr inbounds i8, ptr %key.1, i64 1
  %.pre = load i8, ptr %incdec.ptr67, align 1
  br label %while.cond59, !llvm.loop !15

while.end68:                                      ; preds = %while.cond59, %while.cond59
  %cmp70 = icmp eq i8 %7, 47
  %spec.select47.idx = zext i1 %cmp70 to i64
  %spec.select47 = getelementptr inbounds i8, ptr %key.1, i64 %spec.select47.idx
  %cmp37 = icmp ult ptr %resPathPtr.5, %add.ptr
  br i1 %cmp37, label %land.rhs38, label %if.end75, !llvm.loop !16

if.end75:                                         ; preds = %while.end68, %land.rhs38, %while.cond36.preheader, %if.then
  %key.3 = phi ptr [ %inKey, %if.then ], [ %inKey, %while.cond36.preheader ], [ %spec.select47, %while.end68 ], [ %key.064, %land.rhs38 ]
  call void @_ZN6icu_7511StringPieceC1EPKc(ptr noundef nonnull align 8 dereferenceable(12) %agg.tmp, ptr noundef %key.3)
  br label %if.end79

if.else:                                          ; preds = %entry
  %agg.tmp77.sink.sroa.gep = getelementptr inbounds i8, ptr %agg.tmp77, i64 8
  call void @_ZN6icu_7511StringPieceC1EPKc(ptr noundef nonnull align 8 dereferenceable(12) %agg.tmp77, ptr noundef %inKey)
  br label %if.end79

if.end79:                                         ; preds = %if.else, %if.end75
  %agg.tmp77.sink.sroa.phi = phi ptr [ %agg.tmp77.sink.sroa.gep, %if.else ], [ %agg.tmp77.sink.sroa.gep81, %if.end75 ]
  %agg.tmp77.sink = phi ptr [ %agg.tmp77, %if.else ], [ %agg.tmp, %if.end75 ]
  %.sink = load ptr, ptr %agg.tmp77.sink, align 8
  %8 = load i32, ptr %agg.tmp77.sink.sroa.phi, align 8
  %call3.i48 = call noundef nonnull align 8 dereferenceable(60) ptr @_ZN6icu_7510CharString6appendEPKciR10UErrorCode(ptr noundef nonnull align 8 dereferenceable(60) %path, ptr noundef %.sink, i32 noundef %8, ptr noundef nonnull align 4 dereferenceable(4) %status)
  ret void
}